; Function Attrs: nounwind uwtable
define dso_local noundef i32 @onig_callout_tag_table_free(ptr noundef %0) local_unnamed_addr #2 {
  %.not = icmp eq ptr %0, null
  br i1 %.not, label %4, label %2

2:                                                ; preds = %1
  %3 = tail call i32 @onig_st_foreach(ptr noundef nonnull %0, ptr noundef nonnull @i_free_callout_tag_entry, i64 noundef 0) #24
  tail call void @onig_st_free_table(ptr noundef nonnull %0) #24
  br label %4

4:                                                ; preds = %1, %2
  ret i32 0
}